; Function Attrs: nounwind uwtable
define hidden void @uv__fs_readdir_cleanup(ptr noundef captures(none) %0) local_unnamed_addr #0 {
  %2 = getelementptr inbounds nuw i8, ptr %0, i64 96
  %3 = load ptr, ptr %2, align 8
  %4 = icmp eq ptr %3, null
  br i1 %4, label %.loopexit, label %5

5:                                                ; preds = %1
  %6 = load ptr, ptr %3, align 8
  store ptr null, ptr %2, align 8
  %7 = icmp eq ptr %6, null
  br i1 %7, label %.loopexit, label %.preheader

.preheader:                                       ; preds = %5
  %8 = getelementptr inbounds nuw i8, ptr %0, i64 88
  %9 = load i64, ptr %8, align 8
  %10 = icmp sgt i64 %9, 0
  br i1 %10, label %.lr.ph, label %.loopexit

.lr.ph:                                           ; preds = %.preheader
  %11 = tail call ptr @__errno_location() #27
  br label %12

12:                                               ; preds = %.lr.ph, %12
  %indvars.iv = phi i64 [ 0, %.lr.ph ], [ %indvars.iv.next, %12 ]
  %13 = getelementptr inbounds nuw %struct.uv_dirent_s, ptr %6, i64 %indvars.iv
  %14 = load ptr, ptr %13, align 8
  %15 = load i32, ptr %11, align 4
  %16 = load ptr, ptr @uv__allocator.3, align 8
  tail call void %16(ptr noundef %14) #26
  store i32 %15, ptr %11, align 4
  store ptr null, ptr %13, align 8
  %indvars.iv.next = add nuw nsw i64 %indvars.iv, 1
  %17 = load i64, ptr %8, align 8
  %18 = icmp sgt i64 %17, %indvars.iv.next
  br i1 %18, label %12, label %.loopexit

.loopexit:                                        ; preds = %12, %.preheader, %5, %1
  ret void
}